; Function Attrs: mustprogress uwtable
define noundef ptr @_ZNK7rocksdb18CuckooTableBuilder23GetFileChecksumFuncNameEv(ptr noundef nonnull readonly align 8 captures(none) dereferenceable(993) %0) unnamed_addr #4 align 2 {
  %2 = getelementptr inbounds nuw i8, ptr %0, i64 16
  %3 = load ptr, ptr %2, align 8, !tbaa !49
  %.not = icmp eq ptr %3, null
  br i1 %.not, label %6, label %4

4:                                                ; preds = %1
  %5 = tail call noundef ptr @_ZNK7rocksdb18WritableFileWriter23GetFileChecksumFuncNameEv(ptr noundef nonnull align 8 dereferenceable(258) %3)
  br label %6

6:                                                ; preds = %1, %4
  %.0 = phi ptr [ %5, %4 ], [ @_ZN7rocksdbL28kUnknownFileChecksumFuncNameE, %1 ]
  ret ptr %.0
}